target datalayout = "e-m:e-p270:32:32-p271:32:32-p272:64:64-i64:64-i128:128-f80:128-n8:16:32:64-S128"
target triple = "x86_64-pc-linux-gnu"

%struct.prte_mca_plm_ssh_component_t = type { %struct.pmix_mca_base_component_2_1_0_t, i8, i8, i8, i8, i8, i8, i8, %struct.timespec, i32, i8, i32, ptr, ptr, ptr, i8, i8, ptr, ptr, ptr }
%struct.pmix_mca_base_component_2_1_0_t = type { i32, i32, i32, [16 x i8], i32, i32, i32, [32 x i8], i32, i32, i32, [64 x i8], i32, i32, i32, ptr, ptr, ptr, ptr, [32 x i8] }
%struct.timespec = type { i64, i64 }
%struct.pmix_mca_base_framework_t = type { ptr, ptr, ptr, ptr, ptr, ptr, i32, i32, ptr, ptr, i32, i32, %struct.pmix_list_t, %struct.pmix_list_t }
%struct.pmix_list_t = type { %struct.pmix_object_t, %struct.pmix_list_item_t, i64 }
%struct.pmix_object_t = type { %union.pthread_mutex_t, ptr, i32, %struct.pmix_tma }
%union.pthread_mutex_t = type { %struct.__pthread_mutex_s }
%struct.__pthread_mutex_s = type { i32, i32, i32, i32, i32, i16, i16, %struct.__pthread_internal_list }
%struct.__pthread_internal_list = type { ptr, ptr }
%struct.pmix_tma = type { ptr, ptr, ptr, ptr, ptr, ptr, ptr, ptr }
%struct.pmix_list_item_t = type { %struct.pmix_object_t, ptr, ptr, i32 }
%struct.pmix_output_desc_t = type { i8, i8, i32, i8, i32, ptr, ptr, i32, ptr, i32, i8, i8, i8, i8, ptr, i32, i32 }
%struct.prte_process_info_t = type { %struct.pmix_proc, %struct.pmix_proc, ptr, %struct.pmix_proc, i32, i32, i32, ptr, ptr, i32, i8, ptr, i16, ptr, ptr, i8, ptr, i8 }
%struct.pmix_proc = type { [256 x i8], i32 }

@prte_mca_plm_ssh_component = external global %struct.prte_mca_plm_ssh_component_t, align 8
@ssh_agent_argv = internal global ptr null, align 8
@prte_plm_base_framework = external global %struct.pmix_mca_base_framework_t, align 8
@pmix_output_info = external global [0 x %struct.pmix_output_desc_t], align 8
@prte_process_info = external global %struct.prte_process_info_t, align 8
@ssh_agent_path = internal global ptr null, align 8
@.str.14 = private unnamed_addr constant [37 x i8] c"%s plm:ssh_setup on agent %s path %s\00", align 1
@.str.15 = private unnamed_addr constant [5 x i8] c"NULL\00", align 1
@environ = external global ptr, align 8
@.str.16 = private unnamed_addr constant [4 x i8] c"ssh\00", align 1
@prte_xterm = external global ptr, align 8
@.str.17 = private unnamed_addr constant [3 x i8] c"-X\00", align 1
@.str.18 = private unnamed_addr constant [3 x i8] c"-x\00", align 1

; Function Attrs: nounwind uwtable
define internal i32 @launch_agent_setup(ptr noundef %0, ptr noundef %1) #0 {
  %3 = alloca i32, align 4
  %4 = alloca ptr, align 8
  %5 = alloca ptr, align 8
  %6 = alloca ptr, align 8
  %7 = alloca i32, align 4
  %8 = alloca i32, align 4
  store ptr %0, ptr %4, align 8, !tbaa !17
  store ptr %1, ptr %5, align 8, !tbaa !17
  call void @llvm.lifetime.start.p0(i64 8, ptr %6) #13
  call void @llvm.lifetime.start.p0(i64 4, ptr %7) #13
  %9 = load ptr, ptr getelementptr inbounds nuw (%struct.prte_mca_plm_ssh_component_t, ptr @prte_mca_plm_ssh_component, i32 0, i32 12), align 8, !tbaa !32
  %10 = icmp eq ptr null, %9
  br i1 %10, label %11, label %15

11:                                               ; preds = %2
  %12 = load ptr, ptr %4, align 8, !tbaa !17
  %13 = icmp eq ptr null, %12
  br i1 %13, label %14, label %15

14:                                               ; preds = %11
  store i32 -13, ptr %3, align 4
  store i32 1, ptr %8, align 4
  br label %124

15:                                               ; preds = %11, %2
  %16 = load i32, ptr getelementptr inbounds nuw (%struct.pmix_mca_base_framework_t, ptr @prte_plm_base_framework, i32 0, i32 11), align 4, !tbaa !19
  %17 = icmp sge i32 %16, 0
  br i1 %17, label %18, label %46

18:                                               ; preds = %15
  %19 = load i32, ptr getelementptr inbounds nuw (%struct.pmix_mca_base_framework_t, ptr @prte_plm_base_framework, i32 0, i32 11), align 4, !tbaa !19
  %20 = icmp slt i32 %19, 64
  br i1 %20, label %21, label %46

21:                                               ; preds = %18
  %22 = load i32, ptr getelementptr inbounds nuw (%struct.pmix_mca_base_framework_t, ptr @prte_plm_base_framework, i32 0, i32 11), align 4, !tbaa !19
  %23 = sext i32 %22 to i64
  %24 = getelementptr inbounds [0 x %struct.pmix_output_desc_t], ptr @pmix_output_info, i64 0, i64 %23
  %25 = getelementptr inbounds nuw %struct.pmix_output_desc_t, ptr %24, i32 0, i32 2
  %26 = load i32, ptr %25, align 4, !tbaa !29
  %27 = icmp sge i32 %26, 5
  br i1 %27, label %28, label %46

28:                                               ; preds = %21
  %29 = load i32, ptr getelementptr inbounds nuw (%struct.pmix_mca_base_framework_t, ptr @prte_plm_base_framework, i32 0, i32 11), align 4, !tbaa !19
  %30 = call ptr @prte_util_print_name_args(ptr noundef @prte_process_info)
  %31 = load ptr, ptr %4, align 8, !tbaa !17
  %32 = icmp eq ptr null, %31
  br i1 %32, label %33, label %35

33:                                               ; preds = %28
  %34 = load ptr, ptr getelementptr inbounds nuw (%struct.prte_mca_plm_ssh_component_t, ptr @prte_mca_plm_ssh_component, i32 0, i32 12), align 8, !tbaa !32
  br label %37

35:                                               ; preds = %28
  %36 = load ptr, ptr %4, align 8, !tbaa !17
  br label %37

37:                                               ; preds = %35, %33
  %38 = phi ptr [ %34, %33 ], [ %36, %35 ]
  %39 = load ptr, ptr %5, align 8, !tbaa !17
  %40 = icmp eq ptr null, %39
  br i1 %40, label %41, label %42

41:                                               ; preds = %37
  br label %44

42:                                               ; preds = %37
  %43 = load ptr, ptr %5, align 8, !tbaa !17
  br label %44

44:                                               ; preds = %42, %41
  %45 = phi ptr [ @.str.15, %41 ], [ %43, %42 ]
  call void (i32, ptr, ...) @pmix_output(i32 noundef %29, ptr noundef @.str.14, ptr noundef %30, ptr noundef %38, ptr noundef %45)
  br label %46

46:                                               ; preds = %44, %21, %18, %15
  %47 = load ptr, ptr %4, align 8, !tbaa !17
  %48 = load ptr, ptr %5, align 8, !tbaa !17
  %49 = call ptr @prte_plm_ssh_search(ptr noundef %47, ptr noundef %48)
  store ptr %49, ptr @ssh_agent_argv, align 8, !tbaa !28
  %50 = load ptr, ptr @ssh_agent_argv, align 8, !tbaa !28
  %51 = call i32 @PMIx_Argv_count(ptr noundef %50)
  %52 = icmp eq i32 0, %51
  br i1 %52, label %53, label %54

53:                                               ; preds = %46
  store i32 -13, ptr %3, align 4
  store i32 1, ptr %8, align 4
  br label %124

54:                                               ; preds = %46
  %55 = load ptr, ptr @ssh_agent_argv, align 8, !tbaa !28
  %56 = getelementptr inbounds ptr, ptr %55, i64 0
  %57 = load ptr, ptr %56, align 8, !tbaa !17
  %58 = load ptr, ptr @environ, align 8, !tbaa !28
  %59 = load ptr, ptr %5, align 8, !tbaa !17
  %60 = call noalias ptr @pmix_path_findv(ptr noundef %57, i32 noundef 1, ptr noundef %58, ptr noundef %59)
  store ptr %60, ptr @ssh_agent_path, align 8, !tbaa !17
  %61 = load ptr, ptr @ssh_agent_path, align 8, !tbaa !17
  %62 = icmp eq ptr null, %61
  br i1 %62, label %63, label %65

63:                                               ; preds = %54
  %64 = load ptr, ptr @ssh_agent_argv, align 8, !tbaa !28
  call void @PMIx_Argv_free(ptr noundef %64)
  store i32 -13, ptr %3, align 4
  store i32 1, ptr %8, align 4
  br label %124

65:                                               ; preds = %54
  %66 = load ptr, ptr @ssh_agent_argv, align 8, !tbaa !28
  %67 = getelementptr inbounds ptr, ptr %66, i64 0
  %68 = load ptr, ptr %67, align 8, !tbaa !17
  %69 = call noalias ptr @pmix_basename(ptr noundef %68)
  store ptr %69, ptr %6, align 8, !tbaa !17
  %70 = load ptr, ptr %6, align 8, !tbaa !17
  %71 = icmp ne ptr null, %70
  br i1 %71, label %72, label %118

72:                                               ; preds = %65
  %73 = load ptr, ptr %6, align 8, !tbaa !17
  %74 = call i32 @strcmp(ptr noundef %73, ptr noundef @.str.16) #16
  %75 = icmp eq i32 0, %74
  br i1 %75, label %76, label %118

76:                                               ; preds = %72
  %77 = load ptr, ptr @prte_xterm, align 8, !tbaa !17
  %78 = icmp ne ptr null, %77
  br i1 %78, label %79, label %81

79:                                               ; preds = %76
  %80 = call i32 @PMIx_Argv_append_unique_nosize(ptr noundef @ssh_agent_argv, ptr noundef @.str.17)
  br label %117

81:                                               ; preds = %76
  %82 = load i32, ptr getelementptr inbounds nuw (%struct.pmix_mca_base_framework_t, ptr @prte_plm_base_framework, i32 0, i32 11), align 4, !tbaa !19
  %83 = call i32 @pmix_output_get_verbosity(i32 noundef %82)
  %84 = icmp sge i32 0, %83
  br i1 %84, label %85, label %116

85:                                               ; preds = %81
  store i32 1, ptr %7, align 4, !tbaa !18
  br label %86

86:                                               ; preds = %103, %85
  %87 = load ptr, ptr @ssh_agent_argv, align 8, !tbaa !28
  %88 = load i32, ptr %7, align 4, !tbaa !18
  %89 = sext i32 %88 to i64
  %90 = getelementptr inbounds ptr, ptr %87, i64 %89
  %91 = load ptr, ptr %90, align 8, !tbaa !17
  %92 = icmp ne ptr null, %91
  br i1 %92, label %93, label %106

93:                                               ; preds = %86
  %94 = load ptr, ptr @ssh_agent_argv, align 8, !tbaa !28
  %95 = load i32, ptr %7, align 4, !tbaa !18
  %96 = sext i32 %95 to i64
  %97 = getelementptr inbounds ptr, ptr %94, i64 %96
  %98 = load ptr, ptr %97, align 8, !tbaa !17
  %99 = call i32 @strcasecmp(ptr noundef @.str.18, ptr noundef %98) #16
  %100 = icmp eq i32 0, %99
  br i1 %100, label %101, label %102

101:                                              ; preds = %93
  br label %106

102:                                              ; preds = %93
  br label %103

103:                                              ; preds = %102
  %104 = load i32, ptr %7, align 4, !tbaa !18
  %105 = add nsw i32 %104, 1
  store i32 %105, ptr %7, align 4, !tbaa !18
  br label %86, !llvm.loop !107

106:                                              ; preds = %101, %86
  %107 = load ptr, ptr @ssh_agent_argv, align 8, !tbaa !28
  %108 = load i32, ptr %7, align 4, !tbaa !18
  %109 = sext i32 %108 to i64
  %110 = getelementptr inbounds ptr, ptr %107, i64 %109
  %111 = load ptr, ptr %110, align 8, !tbaa !17
  %112 = icmp eq ptr null, %111
  br i1 %112, label %113, label %115

113:                                              ; preds = %106
  %114 = call i32 @PMIx_Argv_append_nosize(ptr noundef @ssh_agent_argv, ptr noundef @.str.18)
  br label %115

115:                                              ; preds = %113, %106
  br label %116

116:                                              ; preds = %115, %81
  br label %117

117:                                              ; preds = %116, %79
  br label %118

118:                                              ; preds = %117, %72, %65
  %119 = load ptr, ptr %6, align 8, !tbaa !17
  %120 = icmp ne ptr null, %119
  br i1 %120, label %121, label %123

121:                                              ; preds = %118
  %122 = load ptr, ptr %6, align 8, !tbaa !17
  call void @free(ptr noundef %122) #13
  br label %123

123:                                              ; preds = %121, %118
  store i32 0, ptr %3, align 4
  store i32 1, ptr %8, align 4
  br label %124

124:                                              ; preds = %123, %63, %53, %14
  call void @llvm.lifetime.end.p0(i64 4, ptr %7) #13
  call void @llvm.lifetime.end.p0(i64 8, ptr %6) #13
  %125 = load i32, ptr %3, align 4
  ret i32 %125
}