; Function Attrs: nounwind uwtable
define internal fastcc range(i32 -13, 1) i32 @launch_agent_setup(ptr noundef %0, ptr noundef %1) unnamed_addr #0 {
  %3 = load ptr, ptr getelementptr inbounds nuw (i8, ptr @prte_mca_plm_ssh_component, i64 264), align 8, !tbaa !31
  %4 = icmp eq ptr %3, null
  %5 = icmp eq ptr %0, null
  %or.cond = and i1 %5, %4
  br i1 %or.cond, label %.critedge, label %6

6:                                                ; preds = %2
  %7 = load i32, ptr getelementptr inbounds nuw (i8, ptr @prte_plm_base_framework, i64 76), align 4, !tbaa !18
  %or.cond3 = icmp ult i32 %7, 64
  br i1 %or.cond3, label %8, label %19

8:                                                ; preds = %6
  %9 = zext nneg i32 %7 to i64
  %10 = getelementptr inbounds nuw [0 x %struct.pmix_output_desc_t], ptr @pmix_output_info, i64 0, i64 %9, i32 2
  %11 = load i32, ptr %10, align 4, !tbaa !28
  %12 = icmp sgt i32 %11, 4
  br i1 %12, label %13, label %19

13:                                               ; preds = %8
  %14 = tail call ptr @prte_util_print_name_args(ptr noundef nonnull @prte_process_info) #18
  %15 = load ptr, ptr getelementptr inbounds nuw (i8, ptr @prte_mca_plm_ssh_component, i64 264), align 8
  %16 = select i1 %5, ptr %15, ptr %0
  %17 = icmp eq ptr %1, null
  %18 = select i1 %17, ptr @.str.15, ptr %1
  tail call void (i32, ptr, ...) @pmix_output(i32 noundef %7, ptr noundef nonnull @.str.14, ptr noundef %14, ptr noundef %16, ptr noundef nonnull %18) #18
  br label %19

19:                                               ; preds = %13, %8, %6
  %20 = tail call ptr @prte_plm_ssh_search(ptr noundef %0, ptr noundef %1) #18
  store ptr %20, ptr @ssh_agent_argv, align 8, !tbaa !27
  %21 = tail call i32 @PMIx_Argv_count(ptr noundef %20) #18
  %22 = icmp eq i32 %21, 0
  br i1 %22, label %.critedge, label %23

23:                                               ; preds = %19
  %24 = load ptr, ptr @ssh_agent_argv, align 8, !tbaa !27
  %25 = load ptr, ptr %24, align 8, !tbaa !17
  %26 = load ptr, ptr @environ, align 8, !tbaa !27
  %27 = tail call noalias ptr @pmix_path_findv(ptr noundef %25, i32 noundef 1, ptr noundef %26, ptr noundef %1) #18
  store ptr %27, ptr @ssh_agent_path, align 8, !tbaa !17
  %28 = icmp eq ptr %27, null
  %29 = load ptr, ptr @ssh_agent_argv, align 8, !tbaa !27
  br i1 %28, label %30, label %31

30:                                               ; preds = %23
  tail call void @PMIx_Argv_free(ptr noundef %29) #18
  br label %.critedge

31:                                               ; preds = %23
  %32 = load ptr, ptr %29, align 8, !tbaa !17
  %33 = tail call noalias ptr @pmix_basename(ptr noundef %32) #18
  %.not = icmp eq ptr %33, null
  br i1 %.not, label %.critedge, label %34

34:                                               ; preds = %31
  %35 = tail call i32 @strcmp(ptr noundef nonnull dereferenceable(1) %33, ptr noundef nonnull dereferenceable(4) @.str.16) #24
  %36 = icmp eq i32 %35, 0
  br i1 %36, label %37, label %.loopexit

37:                                               ; preds = %34
  %38 = load ptr, ptr @prte_xterm, align 8, !tbaa !17
  %.not23 = icmp eq ptr %38, null
  br i1 %.not23, label %41, label %39

39:                                               ; preds = %37
  %40 = tail call i32 @PMIx_Argv_append_unique_nosize(ptr noundef nonnull @ssh_agent_argv, ptr noundef nonnull @.str.17) #18
  br label %.loopexit

41:                                               ; preds = %37
  %42 = load i32, ptr getelementptr inbounds nuw (i8, ptr @prte_plm_base_framework, i64 76), align 4, !tbaa !18
  %43 = tail call i32 @pmix_output_get_verbosity(i32 noundef %42) #18
  %44 = icmp slt i32 %43, 1
  br i1 %44, label %.preheader, label %.loopexit

.preheader:                                       ; preds = %41
  %45 = load ptr, ptr @ssh_agent_argv, align 8, !tbaa !27
  %46 = getelementptr inbounds nuw i8, ptr %45, i64 8
  %47 = load ptr, ptr %46, align 8, !tbaa !17
  %.not2425 = icmp eq ptr %47, null
  br i1 %.not2425, label %._crit_edge, label %.lr.ph

48:                                               ; preds = %.lr.ph
  %indvars.iv.next = add nuw nsw i64 %indvars.iv, 1
  %49 = getelementptr inbounds nuw ptr, ptr %45, i64 %indvars.iv.next
  %50 = load ptr, ptr %49, align 8, !tbaa !17
  %.not24 = icmp eq ptr %50, null
  br i1 %.not24, label %._crit_edge, label %.lr.ph, !llvm.loop !102

.lr.ph:                                           ; preds = %.preheader, %48
  %indvars.iv = phi i64 [ %indvars.iv.next, %48 ], [ 1, %.preheader ]
  %51 = phi ptr [ %50, %48 ], [ %47, %.preheader ]
  %52 = tail call i32 @strcasecmp(ptr noundef nonnull @.str.18, ptr noundef nonnull %51) #24
  %53 = icmp eq i32 %52, 0
  br i1 %53, label %.loopexit, label %48

._crit_edge:                                      ; preds = %48, %.preheader
  %54 = tail call i32 @PMIx_Argv_append_nosize(ptr noundef nonnull @ssh_agent_argv, ptr noundef nonnull @.str.18) #18
  br label %.loopexit

.loopexit:                                        ; preds = %.lr.ph, %34, %41, %._crit_edge, %39
  tail call void @free(ptr noundef %33) #18
  br label %.critedge

.critedge:                                        ; preds = %.loopexit, %31, %19, %2, %30
  %.019 = phi i32 [ -13, %30 ], [ -13, %2 ], [ -13, %19 ], [ 0, %31 ], [ 0, %.loopexit ]
  ret i32 %.019
}